; Function Attrs: mustprogress nofree norecurse nosync nounwind willreturn memory(argmem: read) uwtable
define <2 x float> @_ZN32pxrInternal_v0_24__pxrReserved__mlERKNS_7GfVec2fERKNS_10GfMatrix2dE(ptr noundef nonnull readonly align 4 captures(none) dereferenceable(8) %0, ptr noundef nonnull readonly align 8 captures(none) dereferenceable(32) %1) local_unnamed_addr #8 {
  %3 = load float, ptr %0, align 4
  %4 = fpext float %3 to double
  %5 = load double, ptr %1, align 8
  %6 = getelementptr inbounds nuw i8, ptr %0, i64 4
  %7 = load float, ptr %6, align 4
  %8 = fpext float %7 to double
  %9 = getelementptr inbounds nuw i8, ptr %1, i64 16
  %10 = load double, ptr %9, align 8
  %11 = fmul double %10, %8
  %12 = tail call double @llvm.fmuladd.f64(double %4, double %5, double %11)
  %13 = fptrunc double %12 to float
  %14 = getelementptr inbounds nuw i8, ptr %1, i64 8
  %15 = load double, ptr %14, align 8
  %16 = getelementptr inbounds nuw i8, ptr %1, i64 24
  %17 = load double, ptr %16, align 8
  %18 = fmul double %17, %8
  %19 = tail call double @llvm.fmuladd.f64(double %4, double %15, double %18)
  %20 = fptrunc double %19 to float
  %.sroa.0.0.vec.insert = insertelement <2 x float> poison, float %13, i64 0
  %.sroa.0.4.vec.insert = insertelement <2 x float> %.sroa.0.0.vec.insert, float %20, i64 1
  ret <2 x float> %.sroa.0.4.vec.insert
}